; Function Attrs: mustprogress uwtable
define noundef zeroext i1 @_ZN7rocksdb19MemTableListVersion14GetFromHistoryERKNS_9LookupKeyEPNSt7__cxx1112basic_stringIcSt11char_traitsIcESaIcEEEPNS_19PinnableWideColumnsESA_PNS_6StatusEPNS_12MergeContextEPmSH_RKNS_11ReadOptionsEPb(ptr noundef nonnull readonly align 8 dereferenceable(88) %0, ptr noundef nonnull align 8 dereferenceable(224) %1, ptr noundef %2, ptr noundef %3, ptr noundef %4, ptr noundef %5, ptr noundef %6, ptr noundef %7, ptr noundef captures(none) initializes((0, 8)) %8, ptr noundef nonnull align 8 dereferenceable(168) %9, ptr noundef %10) local_unnamed_addr #4 align 2 {
  %12 = alloca i64, align 8
  %13 = getelementptr inbounds nuw i8, ptr %0, i64 24
  store i64 72057594037927935, ptr %8, align 8, !tbaa !34
  %.sroa.027.034.i = load ptr, ptr %13, align 8, !tbaa !18
  %.not35.not.i = icmp eq ptr %.sroa.027.034.i, %13
  br i1 %.not35.not.i, label %_ZN7rocksdb19MemTableListVersion11GetFromListEPNSt7__cxx114listIPNS_16ReadOnlyMemTableESaIS4_EEERKNS_9LookupKeyEPNS1_12basic_stringIcSt11char_traitsIcESaIcEEEPNS_19PinnableWideColumnsESG_PNS_6StatusEPNS_12MergeContextEPmSN_RKNS_11ReadOptionsEPNS_12ReadCallbackEPb.exit, label %.lr.ph.i

.lr.ph.i:                                         ; preds = %11, %27
  %.sroa.027.036.i = phi ptr [ %.sroa.027.0.i, %27 ], [ %.sroa.027.034.i, %11 ]
  %14 = getelementptr inbounds nuw i8, ptr %.sroa.027.036.i, i64 16
  call void @llvm.lifetime.start.p0(i64 8, ptr nonnull %12) #27
  store i64 72057594037927935, ptr %12, align 8, !tbaa !34
  %15 = load ptr, ptr %14, align 8, !tbaa !21
  %16 = load ptr, ptr %15, align 8, !tbaa !27
  %17 = getelementptr inbounds nuw i8, ptr %16, i64 80
  %18 = load ptr, ptr %17, align 8
  %19 = call noundef zeroext i1 %18(ptr noundef nonnull align 8 dereferenceable(560) %15, ptr noundef nonnull align 8 dereferenceable(224) %1, ptr noundef %2, ptr noundef %3, ptr noundef %4, ptr noundef %5, ptr noundef %6, ptr noundef %7, ptr noundef nonnull %12, ptr noundef nonnull align 8 dereferenceable(168) %9, i1 noundef zeroext true, ptr noundef null, ptr noundef %10, i1 noundef zeroext true)
  %20 = load i64, ptr %8, align 8, !tbaa !34
  %21 = icmp eq i64 %20, 72057594037927935
  br i1 %21, label %22, label %24

22:                                               ; preds = %.lr.ph.i
  %23 = load i64, ptr %12, align 8, !tbaa !34
  store i64 %23, ptr %8, align 8, !tbaa !34
  br label %24

24:                                               ; preds = %22, %.lr.ph.i
  br i1 %19, label %.thread.i, label %25

25:                                               ; preds = %24
  %26 = load i8, ptr %5, align 8, !tbaa !115
  switch i8 %26, label %.thread.i [
    i8 0, label %27
    i8 6, label %27
    i8 1, label %27
  ]

.thread.i:                                        ; preds = %25, %24
  call void @llvm.lifetime.end.p0(i64 8, ptr nonnull %12) #27
  br label %_ZN7rocksdb19MemTableListVersion11GetFromListEPNSt7__cxx114listIPNS_16ReadOnlyMemTableESaIS4_EEERKNS_9LookupKeyEPNS1_12basic_stringIcSt11char_traitsIcESaIcEEEPNS_19PinnableWideColumnsESG_PNS_6StatusEPNS_12MergeContextEPmSN_RKNS_11ReadOptionsEPNS_12ReadCallbackEPb.exit

27:                                               ; preds = %25, %25, %25
  call void @llvm.lifetime.end.p0(i64 8, ptr nonnull %12) #27
  %.sroa.027.0.i = load ptr, ptr %.sroa.027.036.i, align 8, !tbaa !18
  %.not.not.i = icmp eq ptr %.sroa.027.0.i, %13
  br i1 %.not.not.i, label %_ZN7rocksdb19MemTableListVersion11GetFromListEPNSt7__cxx114listIPNS_16ReadOnlyMemTableESaIS4_EEERKNS_9LookupKeyEPNS1_12basic_stringIcSt11char_traitsIcESaIcEEEPNS_19PinnableWideColumnsESG_PNS_6StatusEPNS_12MergeContextEPmSN_RKNS_11ReadOptionsEPNS_12ReadCallbackEPb.exit, label %.lr.ph.i

_ZN7rocksdb19MemTableListVersion11GetFromListEPNSt7__cxx114listIPNS_16ReadOnlyMemTableESaIS4_EEERKNS_9LookupKeyEPNS1_12basic_stringIcSt11char_traitsIcESaIcEEEPNS_19PinnableWideColumnsESG_PNS_6StatusEPNS_12MergeContextEPmSN_RKNS_11ReadOptionsEPNS_12ReadCallbackEPb.exit: ; preds = %27, %11, %.thread.i
  %.not33.i = phi i1 [ true, %.thread.i ], [ false, %11 ], [ false, %27 ]
  %.1.i = phi i1 [ %19, %.thread.i ], [ undef, %11 ], [ undef, %27 ]
  %spec.select.i = and i1 %.not33.i, %.1.i
  ret i1 %spec.select.i
}